; Function Attrs: cold nounwind optsize uwtable
define internal noundef i32 @decode_end(ptr noundef readonly captures(none) %0) #2 {
  %2 = getelementptr inbounds nuw i8, ptr %0, i64 32
  %3 = load ptr, ptr %2, align 8, !tbaa !31
  %4 = getelementptr inbounds nuw i8, ptr %3, i64 8
  tail call void @av_freep(ptr noundef nonnull %4) #10
  %5 = getelementptr inbounds nuw i8, ptr %3, i64 16
  store i32 0, ptr %5, align 8, !tbaa !48
  %6 = getelementptr inbounds nuw i8, ptr %3, i64 24
  tail call void @av_freep(ptr noundef nonnull %6) #10
  %7 = getelementptr inbounds nuw i8, ptr %3, i64 32
  store i64 0, ptr %7, align 8, !tbaa !44
  ret i32 0
}